target datalayout = "e-m:e-p270:32:32-p271:32:32-p272:64:64-i64:64-i128:128-f80:128-n8:16:32:64-S128"
target triple = "x86_64-pc-linux-gnu"

%struct.expert_field = type { i32, i32 }
%struct._packet_info = type { ptr, ptr, i32, i32, %struct.nstime_t, %struct.nstime_t, %struct.nstime_t, i8, ptr, ptr, ptr, ptr, %struct._address, %struct._address, %struct._address, %struct._address, %struct._address, %struct._address, i32, ptr, i8, [3 x i8], %struct.anon, i32, i32, i32, i32, ptr, i8, ptr, ptr, i16, i16, i32, i32, i16, i32, i32, ptr, ptr, ptr, i8, i8, i16, i16, i16, i32, i16, i16, ptr, ptr, ptr, ptr, ptr, i32, i32 }
%struct.nstime_t = type { i64, i32 }
%struct._address = type { i32, i32, ptr, ptr }
%struct.anon = type { i8, [3 x i8] }

@ei_nas_eps_extraneous_data = internal global %struct.expert_field zeroinitializer, align 4
@.str.1019 = private unnamed_addr constant [10 x i8] c" - IMEISV\00", align 1

; Function Attrs: null_pointer_is_valid sspstrong uwtable
define internal void @nas_emm_sec_mode_comp(ptr noundef %0, ptr noundef %1, ptr noundef %2, i32 noundef %3, i32 noundef %4) #1 {
  %6 = alloca ptr, align 8
  %7 = alloca ptr, align 8
  %8 = alloca ptr, align 8
  %9 = alloca i32, align 4
  %10 = alloca i32, align 4
  %11 = alloca i32, align 4
  %12 = alloca i32, align 4
  %13 = alloca i32, align 4
  %14 = alloca i32, align 4
  store ptr %0, ptr %6, align 8
  store ptr %1, ptr %7, align 8
  store ptr %2, ptr %8, align 8
  store i32 %3, ptr %9, align 4
  store i32 %4, ptr %10, align 4
  call void @llvm.lifetime.start.p0(i64 4, ptr %11) #10
  call void @llvm.lifetime.start.p0(i64 4, ptr %12) #10
  call void @llvm.lifetime.start.p0(i64 4, ptr %13) #10
  %15 = load i32, ptr %9, align 4
  store i32 %15, ptr %11, align 4
  %16 = load i32, ptr %10, align 4
  store i32 %16, ptr %13, align 4
  %17 = load ptr, ptr %8, align 8
  %18 = getelementptr inbounds nuw %struct._packet_info, ptr %17, i32 0, i32 46
  store i32 0, ptr %18, align 8
  %19 = load i32, ptr %13, align 4
  %20 = icmp sle i32 %19, 0
  br i1 %20, label %21, label %22

21:                                               ; preds = %5
  store i32 1, ptr %14, align 4
  br label %114

22:                                               ; preds = %5
  %23 = load ptr, ptr %6, align 8
  %24 = load ptr, ptr %7, align 8
  %25 = load ptr, ptr %8, align 8
  %26 = load i32, ptr %11, align 4
  %27 = load i32, ptr %13, align 4
  %28 = call zeroext i16 @elem_tlv(ptr noundef %23, ptr noundef %24, ptr noundef %25, i8 noundef zeroext 35, i32 noundef 9, i32 noundef 4, i32 noundef %26, i32 noundef %27, ptr noundef @.str.1019)
  %29 = zext i16 %28 to i32
  store i32 %29, ptr %12, align 4
  %30 = icmp ugt i32 %29, 0
  br i1 %30, label %31, label %38

31:                                               ; preds = %22
  %32 = load i32, ptr %12, align 4
  %33 = load i32, ptr %11, align 4
  %34 = add i32 %33, %32
  store i32 %34, ptr %11, align 4
  %35 = load i32, ptr %12, align 4
  %36 = load i32, ptr %13, align 4
  %37 = sub i32 %36, %35
  store i32 %37, ptr %13, align 4
  br label %38

38:                                               ; preds = %31, %22
  %39 = load i32, ptr %13, align 4
  %40 = icmp sle i32 %39, 0
  br i1 %40, label %41, label %42

41:                                               ; preds = %38
  store i32 1, ptr %14, align 4
  br label %114

42:                                               ; preds = %38
  %43 = load ptr, ptr %6, align 8
  %44 = load ptr, ptr %7, align 8
  %45 = load ptr, ptr %8, align 8
  %46 = load i32, ptr %11, align 4
  %47 = load i32, ptr %13, align 4
  %48 = call zeroext i16 @elem_tlv_e(ptr noundef %43, ptr noundef %44, ptr noundef %45, i8 noundef zeroext 121, i32 noundef 10, i32 noundef 60, i32 noundef %46, i32 noundef %47, ptr noundef null)
  %49 = zext i16 %48 to i32
  store i32 %49, ptr %12, align 4
  %50 = icmp ugt i32 %49, 0
  br i1 %50, label %51, label %58

51:                                               ; preds = %42
  %52 = load i32, ptr %12, align 4
  %53 = load i32, ptr %11, align 4
  %54 = add i32 %53, %52
  store i32 %54, ptr %11, align 4
  %55 = load i32, ptr %12, align 4
  %56 = load i32, ptr %13, align 4
  %57 = sub i32 %56, %55
  store i32 %57, ptr %13, align 4
  br label %58

58:                                               ; preds = %51, %42
  %59 = load i32, ptr %13, align 4
  %60 = icmp sle i32 %59, 0
  br i1 %60, label %61, label %62

61:                                               ; preds = %58
  store i32 1, ptr %14, align 4
  br label %114

62:                                               ; preds = %58
  %63 = load ptr, ptr %6, align 8
  %64 = load ptr, ptr %7, align 8
  %65 = load ptr, ptr %8, align 8
  %66 = load i32, ptr %11, align 4
  %67 = load i32, ptr %13, align 4
  %68 = call zeroext i16 @elem_tlv(ptr noundef %63, ptr noundef %64, ptr noundef %65, i8 noundef zeroext 102, i32 noundef 17, i32 noundef 73, i32 noundef %66, i32 noundef %67, ptr noundef null)
  %69 = zext i16 %68 to i32
  store i32 %69, ptr %12, align 4
  %70 = icmp ugt i32 %69, 0
  br i1 %70, label %71, label %78

71:                                               ; preds = %62
  %72 = load i32, ptr %12, align 4
  %73 = load i32, ptr %11, align 4
  %74 = add i32 %73, %72
  store i32 %74, ptr %11, align 4
  %75 = load i32, ptr %12, align 4
  %76 = load i32, ptr %13, align 4
  %77 = sub i32 %76, %75
  store i32 %77, ptr %13, align 4
  br label %78

78:                                               ; preds = %71, %62
  %79 = load i32, ptr %13, align 4
  %80 = icmp sle i32 %79, 0
  br i1 %80, label %81, label %82

81:                                               ; preds = %78
  store i32 1, ptr %14, align 4
  br label %114

82:                                               ; preds = %78
  %83 = load ptr, ptr %6, align 8
  %84 = load ptr, ptr %7, align 8
  %85 = load ptr, ptr %8, align 8
  %86 = load i32, ptr %11, align 4
  %87 = load i32, ptr %13, align 4
  %88 = call zeroext i16 @elem_tlv(ptr noundef %83, ptr noundef %84, ptr noundef %85, i8 noundef zeroext 103, i32 noundef 10, i32 noundef 80, i32 noundef %86, i32 noundef %87, ptr noundef null)
  %89 = zext i16 %88 to i32
  store i32 %89, ptr %12, align 4
  %90 = icmp ugt i32 %89, 0
  br i1 %90, label %91, label %98

91:                                               ; preds = %82
  %92 = load i32, ptr %12, align 4
  %93 = load i32, ptr %11, align 4
  %94 = add i32 %93, %92
  store i32 %94, ptr %11, align 4
  %95 = load i32, ptr %12, align 4
  %96 = load i32, ptr %13, align 4
  %97 = sub i32 %96, %95
  store i32 %97, ptr %13, align 4
  br label %98

98:                                               ; preds = %91, %82
  %99 = load i32, ptr %13, align 4
  %100 = icmp ugt i32 %99, 0
  br i1 %100, label %101, label %113

101:                                              ; preds = %98
  %102 = load ptr, ptr %7, align 8
  %103 = load ptr, ptr %8, align 8
  %104 = load ptr, ptr %6, align 8
  %105 = load i32, ptr %11, align 4
  %106 = load i32, ptr %13, align 4
  %107 = sub i32 %106, 0
  %108 = call ptr @proto_tree_add_expert(ptr noundef %102, ptr noundef %103, ptr noundef @ei_nas_eps_extraneous_data, ptr noundef %104, i32 noundef %105, i32 noundef %107)
  %109 = load i32, ptr %13, align 4
  %110 = sub i32 %109, 0
  %111 = load i32, ptr %11, align 4
  %112 = add i32 %111, %110
  store i32 %112, ptr %11, align 4
  br label %113

113:                                              ; preds = %101, %98
  store i32 0, ptr %14, align 4
  br label %114

114:                                              ; preds = %113, %81, %61, %41, %21
  call void @llvm.lifetime.end.p0(i64 4, ptr %13) #10
  call void @llvm.lifetime.end.p0(i64 4, ptr %12) #10
  call void @llvm.lifetime.end.p0(i64 4, ptr %11) #10
  %115 = load i32, ptr %14, align 4
  switch i32 %115, label %117 [
    i32 0, label %116
    i32 1, label %116
  ]

116:                                              ; preds = %114, %114
  ret void

117:                                              ; preds = %114
  unreachable
}